; ModuleID = '28/1579.c'
source_filename = "28/1579.c"
target datalayout = "e-m:e-p270:32:32-p271:32:32-p272:64:64-i64:64-f80:128-n8:16:32:64-S128"
target triple = "x86_64-pc-linux-gnu"

@.str = private unnamed_addr constant [4 x i8] c"%d,\00", align 1
@.str.1 = private unnamed_addr constant [4 x i8] c"%d\0A\00", align 1

; Function Attrs: noinline nounwind uwtable
define dso_local void @main() #0 {
  %1 = alloca [30000 x i8], align 16
  %2 = alloca [30000 x i32], align 16
  %3 = alloca i32, align 4
  %4 = alloca i32, align 4
  %5 = alloca i8*, align 8
  %6 = alloca i32*, align 8
  %7 = getelementptr inbounds [30000 x i8], [30000 x i8]* %1, i64 0, i64 0
  %8 = call i32 (i8*, ...) bitcast (i32 (...)* @gets to i32 (i8*, ...)*)(i8* %7)
  %9 = bitcast [30000 x i32]* %2 to i8*
  call void @llvm.memset.p0i8.i64(i8* align 16 %9, i8 0, i64 120000, i1 false)
  store i32 0, i32* %3, align 4
  store i32 0, i32* %4, align 4
  %10 = getelementptr inbounds [30000 x i32], [30000 x i32]* %2, i64 0, i64 0
  store i32* %10, i32** %6, align 8
  %11 = getelementptr inbounds [30000 x i8], [30000 x i8]* %1, i64 0, i64 0
  store i8* %11, i8** %5, align 8
  br label %12

12:                                               ; preds = %43, %0
  %13 = load i8*, i8** %5, align 8
  %14 = load i8, i8* %13, align 1
  %15 = sext i8 %14 to i32
  %16 = icmp ne i32 %15, 0
  br i1 %16, label %17, label %46

17:                                               ; preds = %12
  %18 = load i8*, i8** %5, align 8
  %19 = load i8, i8* %18, align 1
  %20 = sext i8 %19 to i32
  %21 = icmp ne i32 %20, 32
  br i1 %21, label %22, label %29

22:                                               ; preds = %17
  %23 = load i32*, i32** %6, align 8
  %24 = load i32, i32* %3, align 4
  %25 = sext i32 %24 to i64
  %26 = getelementptr inbounds i32, i32* %23, i64 %25
  %27 = load i32, i32* %26, align 4
  %28 = add nsw i32 %27, 1
  store i32 %28, i32* %26, align 4
  store i32 0, i32* %4, align 4
  br label %29

29:                                               ; preds = %22, %17
  %30 = load i8*, i8** %5, align 8
  %31 = load i8, i8* %30, align 1
  %32 = sext i8 %31 to i32
  %33 = icmp eq i32 %32, 32
  br i1 %33, label %34, label %42

34:                                               ; preds = %29
  %35 = load i32, i32* %4, align 4
  %36 = icmp eq i32 %35, 0
  br i1 %36, label %37, label %40

37:                                               ; preds = %34
  %38 = load i32, i32* %3, align 4
  %39 = add nsw i32 %38, 1
  store i32 %39, i32* %3, align 4
  store i32 1, i32* %4, align 4
  br label %41

40:                                               ; preds = %34
  br label %43

41:                                               ; preds = %37
  br label %42

42:                                               ; preds = %41, %29
  br label %43

43:                                               ; preds = %42, %40
  %44 = load i8*, i8** %5, align 8
  %45 = getelementptr inbounds i8, i8* %44, i32 1
  store i8* %45, i8** %5, align 8
  br label %12

46:                                               ; preds = %12
  %47 = getelementptr inbounds [30000 x i32], [30000 x i32]* %2, i64 0, i64 0
  store i32* %47, i32** %6, align 8
  br label %48

48:                                               ; preds = %57, %46
  %49 = load i32*, i32** %6, align 8
  %50 = getelementptr inbounds i32, i32* %49, i64 1
  %51 = load i32, i32* %50, align 4
  %52 = icmp ne i32 %51, 0
  br i1 %52, label %53, label %60

53:                                               ; preds = %48
  %54 = load i32*, i32** %6, align 8
  %55 = load i32, i32* %54, align 4
  %56 = call i32 (i8*, ...) @printf(i8* getelementptr inbounds ([4 x i8], [4 x i8]* @.str, i64 0, i64 0), i32 %55)
  br label %57

57:                                               ; preds = %53
  %58 = load i32*, i32** %6, align 8
  %59 = getelementptr inbounds i32, i32* %58, i32 1
  store i32* %59, i32** %6, align 8
  br label %48

60:                                               ; preds = %48
  %61 = load i32*, i32** %6, align 8
  %62 = load i32, i32* %61, align 4
  %63 = call i32 (i8*, ...) @printf(i8* getelementptr inbounds ([4 x i8], [4 x i8]* @.str.1, i64 0, i64 0), i32 %62)
  ret void
}

declare dso_local i32 @gets(...) #1

; Function Attrs: argmemonly nounwind willreturn
declare void @llvm.memset.p0i8.i64(i8* nocapture writeonly, i8, i64, i1 immarg) #2

declare dso_local i32 @printf(i8*, ...) #1


!llvm.module.flags = !{!0}
!llvm.ident = !{!1}

!0 = !{i32 1, !"wchar_size", i32 4}
!1 = !{!"clang version 10.0.0-4ubuntu1 "}
